; Function Attrs: mustprogress uwtable
define hidden void @_ZN4cvc58internal13SkolemManager16mkSkolemFunctionENS_8SkolemIdERKSt6vectorINS0_12NodeTemplateILb1EEESaIS5_EE(ptr dead_on_unwind noalias writable sret(%"class.cvc5::internal::NodeTemplate") align 8 %0, ptr noundef nonnull align 8 dereferenceable(104) %1, i32 noundef %2, ptr noundef nonnull readonly align 8 captures(none) dereferenceable(24) %3) local_unnamed_addr #4 align 2 personality ptr @__gxx_personality_v0 {
  %5 = alloca %"class.cvc5::internal::TypeNode", align 8
  %6 = alloca %"class.cvc5::internal::TypeNode", align 8
  call void @llvm.lifetime.start.p0(i64 8, ptr nonnull %5) #27
  call void @_ZN4cvc58internal13SkolemManager10getTypeForENS_8SkolemIdERKSt6vectorINS0_12NodeTemplateILb1EEESaIS5_EE(ptr dead_on_unwind nonnull writable sret(%"class.cvc5::internal::TypeNode") align 8 %5, ptr nonnull align 8 poison, i32 noundef %2, ptr noundef nonnull align 8 dereferenceable(24) %3)
  %7 = load ptr, ptr %5, align 8, !tbaa !37
  store ptr %7, ptr %6, align 8, !tbaa !37
  %8 = load i64, ptr %7, align 8
  %9 = lshr i64 %8, 40
  %10 = trunc nuw nsw i64 %9 to i32
  %11 = and i32 %10, 1048575
  %12 = icmp samesign ult i32 %11, 1048574
  br i1 %12, label %13, label %18, !prof !25

13:                                               ; preds = %4
  %14 = add i64 %8, 1099511627776
  %15 = and i64 %14, 1152920405095219200
  %16 = and i64 %8, -1152920405095219201
  %17 = or disjoint i64 %15, %16
  store i64 %17, ptr %7, align 8
  br label %_ZN4cvc58internal8TypeNodeC2ERKS1_.exit

18:                                               ; preds = %4
  %19 = icmp eq i32 %11, 1048574
  br i1 %19, label %20, label %_ZN4cvc58internal8TypeNodeC2ERKS1_.exit, !prof !26

20:                                               ; preds = %18
  %21 = or i64 %8, 1152920405095219200
  store i64 %21, ptr %7, align 8
  invoke void @_ZN4cvc58internal4expr9NodeValue20markRefCountMaxedOutEv(ptr noundef nonnull align 8 dereferenceable(24) %7)
          to label %_ZN4cvc58internal8TypeNodeC2ERKS1_.exit unwind label %48

_ZN4cvc58internal8TypeNodeC2ERKS1_.exit:          ; preds = %18, %13, %20
  invoke void @_ZN4cvc58internal13SkolemManager21mkSkolemFunctionTypedENS_8SkolemIdENS0_8TypeNodeERKSt6vectorINS0_12NodeTemplateILb1EEESaIS6_EE(ptr dead_on_unwind writable sret(%"class.cvc5::internal::NodeTemplate") align 8 %0, ptr noundef nonnull align 8 dereferenceable(104) %1, i32 noundef %2, ptr noundef nonnull %6, ptr noundef nonnull align 8 dereferenceable(24) %3)
          to label %22 unwind label %50

22:                                               ; preds = %_ZN4cvc58internal8TypeNodeC2ERKS1_.exit
  %23 = load i64, ptr %7, align 8
  %24 = and i64 %23, 1152920405095219200
  %.not.i.i = icmp eq i64 %24, 1152920405095219200
  br i1 %.not.i.i, label %_ZN4cvc58internal8TypeNodeD2Ev.exit, label %25, !prof !26

25:                                               ; preds = %22
  %26 = add i64 %23, 1152920405095219200
  %27 = and i64 %26, 1152920405095219200
  %28 = and i64 %23, -1152920405095219201
  %29 = or disjoint i64 %27, %28
  store i64 %29, ptr %7, align 8
  %30 = icmp eq i64 %27, 0
  br i1 %30, label %31, label %_ZN4cvc58internal8TypeNodeD2Ev.exit, !prof !26

31:                                               ; preds = %25
  invoke void @_ZN4cvc58internal4expr9NodeValue15markForDeletionEv(ptr noundef nonnull align 8 dereferenceable(24) %7)
          to label %_ZN4cvc58internal8TypeNodeD2Ev.exit unwind label %32

32:                                               ; preds = %31
  %33 = landingpad { ptr, i32 }
          catch ptr null
  %34 = extractvalue { ptr, i32 } %33, 0
  call void @__clang_call_terminate(ptr %34) #26
  unreachable

_ZN4cvc58internal8TypeNodeD2Ev.exit:              ; preds = %22, %25, %31
  %35 = load ptr, ptr %5, align 8, !tbaa !37
  %36 = load i64, ptr %35, align 8
  %37 = and i64 %36, 1152920405095219200
  %.not.i.i8 = icmp eq i64 %37, 1152920405095219200
  br i1 %.not.i.i8, label %_ZN4cvc58internal8TypeNodeD2Ev.exit9, label %38, !prof !26

38:                                               ; preds = %_ZN4cvc58internal8TypeNodeD2Ev.exit
  %39 = add i64 %36, 1152920405095219200
  %40 = and i64 %39, 1152920405095219200
  %41 = and i64 %36, -1152920405095219201
  %42 = or disjoint i64 %40, %41
  store i64 %42, ptr %35, align 8
  %43 = icmp eq i64 %40, 0
  br i1 %43, label %44, label %_ZN4cvc58internal8TypeNodeD2Ev.exit9, !prof !26

44:                                               ; preds = %38
  invoke void @_ZN4cvc58internal4expr9NodeValue15markForDeletionEv(ptr noundef nonnull align 8 dereferenceable(24) %35)
          to label %_ZN4cvc58internal8TypeNodeD2Ev.exit9 unwind label %45

45:                                               ; preds = %44
  %46 = landingpad { ptr, i32 }
          catch ptr null
  %47 = extractvalue { ptr, i32 } %46, 0
  call void @__clang_call_terminate(ptr %47) #26
  unreachable

_ZN4cvc58internal8TypeNodeD2Ev.exit9:             ; preds = %_ZN4cvc58internal8TypeNodeD2Ev.exit, %38, %44
  call void @llvm.lifetime.end.p0(i64 8, ptr nonnull %5) #27
  ret void

48:                                               ; preds = %20
  %49 = landingpad { ptr, i32 }
          cleanup
  br label %52

50:                                               ; preds = %_ZN4cvc58internal8TypeNodeC2ERKS1_.exit
  %51 = landingpad { ptr, i32 }
          cleanup
  call void @_ZN4cvc58internal8TypeNodeD2Ev(ptr noundef nonnull align 8 dereferenceable(8) %6) #27
  br label %52

52:                                               ; preds = %50, %48
  %.pn = phi { ptr, i32 } [ %51, %50 ], [ %49, %48 ]
  call void @_ZN4cvc58internal8TypeNodeD2Ev(ptr noundef nonnull align 8 dereferenceable(8) %5) #27
  call void @llvm.lifetime.end.p0(i64 8, ptr nonnull %5) #27
  resume { ptr, i32 } %.pn
}